; Function Attrs: mustprogress nounwind uwtable
define hidden noundef ptr @_ZN14XCollectedHeap34satisfy_failed_metadata_allocationEP15ClassLoaderDatamN9Metaspace12MetadataTypeE(ptr noundef nonnull align 64 dereferenceable(4432) %0, ptr noundef %1, i64 noundef %2, i32 noundef %3) unnamed_addr #1 align 2 {
  %5 = load ptr, ptr %0, align 64
  %6 = getelementptr inbounds i8, ptr %5, i64 192
  %7 = load ptr, ptr %6, align 8
  tail call void %7(ptr noundef nonnull align 64 dereferenceable(4432) %0, i32 noundef 16) #9
  %8 = tail call noundef ptr @_ZN15ClassLoaderData18metaspace_non_nullEv(ptr noundef nonnull align 8 dereferenceable(160) %1) #9
  %9 = tail call noundef ptr @_ZN20ClassLoaderMetaspace19expand_and_allocateEmN9Metaspace12MetadataTypeE(ptr noundef nonnull align 8 dereferenceable(32) %8, i64 noundef %2, i32 noundef %3) #9
  %.not = icmp eq ptr %9, null
  br i1 %.not, label %10, label %12

10:                                               ; preds = %4
  %11 = tail call noundef ptr @_ZN27MetaspaceCriticalAllocation8allocateEP15ClassLoaderDatamN9Metaspace12MetadataTypeE(ptr noundef nonnull %1, i64 noundef %2, i32 noundef %3) #9
  br label %12

12:                                               ; preds = %4, %10
  %.0 = phi ptr [ %11, %10 ], [ %9, %4 ]
  ret ptr %.0
}